ARM GAS  C:\Users\user\AppData\Local\Temp\ccBgXyQe.s 			page 1


   1              		.syntax unified
   2              		.cpu cortex-m3
   3              		.fpu softvfp
   4              		.eabi_attribute 20, 1
   5              		.eabi_attribute 21, 1
   6              		.eabi_attribute 23, 3
   7              		.eabi_attribute 24, 1
   8              		.eabi_attribute 25, 1
   9              		.eabi_attribute 26, 1
  10              		.eabi_attribute 30, 1
  11              		.eabi_attribute 34, 1
  12              		.eabi_attribute 18, 4
  13              		.thumb
  14              		.syntax unified
  15              		.file	"main.c"
  16              		.text
  17              	.Ltext0:
  18              		.cfi_sections	.debug_frame
  19              		.section	.text.isr_pb,"ax",%progbits
  20              		.align	2
  21              		.global	isr_pb
  22              		.thumb
  23              		.thumb_func
  24              		.type	isr_pb, %function
  25              	isr_pb:
  26              	.LFB63:
  27              		.file 1 "main.c"
   1:main.c        **** /* ========================================
   2:main.c        ****  * Name                 : Chaithra Mahadeva
   3:main.c        ****  * Matriculation Number : 766481
   4:main.c        ****  * Major                : Communication
   5:main.c        ****  * ========================================
   6:main.c        ****  * Copyright YOUR COMPANY, THE YEAR
   7:main.c        ****  * All Rights Reserved
   8:main.c        ****  * UNPUBLISHED, LICENSED SOFTWARE.
   9:main.c        ****  *
  10:main.c        ****  * CONFIDENTIAL AND PROPRIETARY INFORMATION
  11:main.c        ****  * WHICH IS THE PROPERTY OF your company.
  12:main.c        ****  *
  13:main.c        ****  * ========================================
  14:main.c        **** */
  15:main.c        **** #include "project.h"
  16:main.c        **** 
  17:main.c        **** /*Buffer size*/
  18:main.c        **** #define ADC_DMA_Bufsize 2048
  19:main.c        **** 
  20:main.c        **** /*Destination Buffer*/
  21:main.c        **** uint16_t ADC_DMA_Buf[ADC_DMA_Bufsize];
  22:main.c        **** 
  23:main.c        **** /* Variable declarations for DMA */
  24:main.c        **** /* Move these variable declarations to the top of the function */
  25:main.c        **** uint8 DMA_Chan;
  26:main.c        **** uint8 DMA_TD[1];
  27:main.c        **** 
  28:main.c        **** /* Defines for DMA */
  29:main.c        **** #define DMA_BYTES_PER_BURST 2
  30:main.c        **** #define DMA_REQUEST_PER_BURST 1
ARM GAS  C:\Users\user\AppData\Local\Temp\ccBgXyQe.s 			page 2


  31:main.c        **** #define DMA_SRC_BASE (CYDEV_PERIPH_BASE)
  32:main.c        **** #define DMA_DST_BASE (CYDEV_SRAM_BASE)
  33:main.c        **** 
  34:main.c        **** /*Application status variable and different states*/
  35:main.c        **** enum App_State{
  36:main.c        **** 	IS_IDLE,            //Idle state
  37:main.c        **** 	IS_Sampling,        //Starts sampling and waits for Matlab indication to move to next state
  38:main.c        **** 	IS_UARTTransfer     //Starts sending data if 's' recieved
  39:main.c        **** };
  40:main.c        **** typedef enum App_State App_State_t;
  41:main.c        **** 
  42:main.c        **** App_State_t Appstate;   //variable for application status
  43:main.c        **** 
  44:main.c        **** void UARTtoMatlab_Transfer(void);   //function to communicate with Matlab
  45:main.c        **** void stateHandler(void);            //function to handle different states of application
  46:main.c        **** 
  47:main.c        **** /*function to handle pushbutton interrupt
  48:main.c        ****  *Parameter NIL
  49:main.c        ****  *Return value void
  50:main.c        ****  */
  51:main.c        **** void isr_pb()
  52:main.c        **** {
  28              		.loc 1 52 0
  29              		.cfi_startproc
  30              		@ args = 0, pretend = 0, frame = 0
  31              		@ frame_needed = 0, uses_anonymous_args = 0
  32 0000 08B5     		push	{r3, lr}
  33              		.cfi_def_cfa_offset 8
  34              		.cfi_offset 3, -8
  35              		.cfi_offset 14, -4
  53:main.c        ****     ADC_DelSig_StartConvert();      //start analog to digital conversion
  36              		.loc 1 53 0
  37 0002 FFF7FEFF 		bl	ADC_DelSig_StartConvert
  38              	.LVL0:
  54:main.c        ****     Pin_RedLED_Write(1);            //switch on red led to indicate state change to Sampling
  39              		.loc 1 54 0
  40 0006 0120     		movs	r0, #1
  41 0008 FFF7FEFF 		bl	Pin_RedLED_Write
  42              	.LVL1:
  55:main.c        ****     Pin_GreenLED_Write(0);          //keep other LEDs off
  43              		.loc 1 55 0
  44 000c 0020     		movs	r0, #0
  45 000e FFF7FEFF 		bl	Pin_GreenLED_Write
  46              	.LVL2:
  56:main.c        ****     Pin_YellowLED_Write(0);         //keep other LEDs off
  47              		.loc 1 56 0
  48 0012 0020     		movs	r0, #0
  49 0014 FFF7FEFF 		bl	Pin_YellowLED_Write
  50              	.LVL3:
  57:main.c        ****     Pin_PB_ClearInterrupt();        //clear the interrupt
  51              		.loc 1 57 0
  52 0018 FFF7FEFF 		bl	Pin_PB_ClearInterrupt
  53              	.LVL4:
  54 001c 08BD     		pop	{r3, pc}
  55              		.cfi_endproc
  56              	.LFE63:
  57              		.size	isr_pb, .-isr_pb
ARM GAS  C:\Users\user\AppData\Local\Temp\ccBgXyQe.s 			page 3


  58 001e 00BF     		.section	.text.isr_uart,"ax",%progbits
  59              		.align	2
  60              		.global	isr_uart
  61              		.thumb
  62              		.thumb_func
  63              		.type	isr_uart, %function
  64              	isr_uart:
  65              	.LFB64:
  58:main.c        **** }
  59:main.c        **** 
  60:main.c        **** /*function to handle Matlab interrupt
  61:main.c        ****  *Parameter NIL
  62:main.c        ****  *Return value void
  63:main.c        ****  */
  64:main.c        **** void isr_uart()
  65:main.c        **** {
  66              		.loc 1 65 0
  67              		.cfi_startproc
  68              		@ args = 0, pretend = 0, frame = 0
  69              		@ frame_needed = 0, uses_anonymous_args = 0
  70 0000 08B5     		push	{r3, lr}
  71              		.cfi_def_cfa_offset 8
  72              		.cfi_offset 3, -8
  73              		.cfi_offset 14, -4
  66:main.c        ****     if(ISR_DMA_GetState()==1)        //check whether application in Sampling state
  74              		.loc 1 66 0
  75 0002 FFF7FEFF 		bl	ISR_DMA_GetState
  76              	.LVL5:
  77 0006 0128     		cmp	r0, #1
  78 0008 07D1     		bne	.L3
  67:main.c        ****     {
  68:main.c        ****         Pin_YellowLED_Write(1);     //switch on red led to indicate state change to UARTTransfer st
  79              		.loc 1 68 0
  80 000a FFF7FEFF 		bl	Pin_YellowLED_Write
  81              	.LVL6:
  69:main.c        ****         Pin_RedLED_Write(0);        //keep other LEDs off
  82              		.loc 1 69 0
  83 000e 0020     		movs	r0, #0
  84 0010 FFF7FEFF 		bl	Pin_RedLED_Write
  85              	.LVL7:
  70:main.c        ****         Pin_GreenLED_Write(0);      //keep other LEDs off
  86              		.loc 1 70 0
  87 0014 0020     		movs	r0, #0
  88 0016 FFF7FEFF 		bl	Pin_GreenLED_Write
  89              	.LVL8:
  90              	.L3:
  91 001a 08BD     		pop	{r3, pc}
  92              		.cfi_endproc
  93              	.LFE64:
  94              		.size	isr_uart, .-isr_uart
  95              		.section	.text.isr_dma,"ax",%progbits
  96              		.align	2
  97              		.global	isr_dma
  98              		.thumb
  99              		.thumb_func
 100              		.type	isr_dma, %function
 101              	isr_dma:
ARM GAS  C:\Users\user\AppData\Local\Temp\ccBgXyQe.s 			page 4


 102              	.LFB65:
  71:main.c        ****     }
  72:main.c        **** }
  73:main.c        **** 
  74:main.c        **** /*function to handle Dma interrupt
  75:main.c        ****  *Parameter NIL
  76:main.c        ****  *Return value void
  77:main.c        ****  */
  78:main.c        **** void isr_dma()
  79:main.c        **** {
 103              		.loc 1 79 0
 104              		.cfi_startproc
 105              		@ args = 0, pretend = 0, frame = 0
 106              		@ frame_needed = 0, uses_anonymous_args = 0
 107 0000 08B5     		push	{r3, lr}
 108              		.cfi_def_cfa_offset 8
 109              		.cfi_offset 3, -8
 110              		.cfi_offset 14, -4
  80:main.c        ****     CyDmaChEnable(
 111              		.loc 1 80 0
 112 0002 0121     		movs	r1, #1
 113 0004 024B     		ldr	r3, .L8
 114 0006 1878     		ldrb	r0, [r3]	@ zero_extendqisi2
 115 0008 FFF7FEFF 		bl	CyDmaChEnable
 116              	.LVL9:
 117 000c 08BD     		pop	{r3, pc}
 118              	.L9:
 119 000e 00BF     		.align	2
 120              	.L8:
 121 0010 00000000 		.word	DMA_Chan
 122              		.cfi_endproc
 123              	.LFE65:
 124              		.size	isr_dma, .-isr_dma
 125              		.section	.text.UARTtoMatlab_Transfer,"ax",%progbits
 126              		.align	2
 127              		.global	UARTtoMatlab_Transfer
 128              		.thumb
 129              		.thumb_func
 130              		.type	UARTtoMatlab_Transfer, %function
 131              	UARTtoMatlab_Transfer:
 132              	.LFB68:
  81:main.c        ****         DMA_Chan,       //Channel handle
  82:main.c        ****         1               //When a TD is completed, the DMAC restores the original configuration valu
  83:main.c        ****     ); 
  84:main.c        **** }
  85:main.c        **** 
  86:main.c        **** int main(void)
  87:main.c        **** {
  88:main.c        ****     CyGlobalIntEnable;      /* Enable global interrupts. */
  89:main.c        **** 
  90:main.c        ****     /*  Place your initialization/startup code here (e.g. MyInst_Start()) */
  91:main.c        ****     WaveDAC8_Start();       //start WaveDAC
  92:main.c        ****     ADC_DelSig_Start();     //start ADC
  93:main.c        ****     
  94:main.c        ****     //  Sets up the interrupt and enables it
  95:main.c        ****     ISR_PB_StartEx(isr_pb);     //Calling ISR once Push Button is pressed
  96:main.c        ****     
ARM GAS  C:\Users\user\AppData\Local\Temp\ccBgXyQe.s 			page 5


  97:main.c        ****     ISR_UART_StartEx(isr_uart); //whenever a char is recieved from Matlab
  98:main.c        ****     
  99:main.c        ****     ISR_DMA_StartEx(isr_dma);   //Whenever a dma interrupt is triggered
 100:main.c        ****     
 101:main.c        ****     /*  DMA Configuration for DMA */
 102:main.c        ****     /*Allocates and initializes a DMA channel to be used by the caller
 103:main.c        ****      *uint8: The channel that can be used by the caller for DMA activity. 
 104:main.c        ****      *Returns CY_DMA_INVALID_CHANNEL (0xFF) if there are no channels left
 105:main.c        ****      */
 106:main.c        ****     DMA_Chan = DMA_DmaInitialize(
 107:main.c        ****         DMA_BYTES_PER_BURST,            //Number of bytes for each sample
 108:main.c        ****         DMA_REQUEST_PER_BURST,          //All subsequent bursts after the first burst must also be 
 109:main.c        ****         HI16(ADC_DelSig_DEC_SAMP_PTR),  //Source Buffer
 110:main.c        ****         HI16(ADC_DMA_Buf)               //Destination Buffer
 111:main.c        ****     );
 112:main.c        ****     
 113:main.c        ****     /*Allocates a TD for use with an allocated DMA channel
 114:main.c        ****      *Return value: Zero-based index of the TD to be used by the caller(range from 24 to 127)
 115:main.c        ****      */
 116:main.c        ****     DMA_TD[0] = CyDmaTdAllocate();      
 117:main.c        ****     
 118:main.c        ****     /*Sets configuration information for the channel
 119:main.c        ****      *Return value: CYRET_SUCCESS if successful, CYRET_BAD_PARAM if chHandle is invalid
 120:main.c        ****      */
 121:main.c        ****     CyDmaTdSetConfiguration(
 122:main.c        ****         DMA_TD[0],          //transport descriptor handle
 123:main.c        ****         2048,               //total number of bytes
 124:main.c        ****         CY_DMA_DISABLE_TD,  //terminate channel after TD has finished
 125:main.c        ****         DMA__TD_TERMOUT_EN | CY_DMA_TD_INC_DST_ADR
 126:main.c        ****     );
 127:main.c        ****     
 128:main.c        ****     /*Sets the lower 16 bits of the source and destination addresses for this TD only
 129:main.c        ****      *Return value: CYRET_SUCCESS if successful, CYRET_BAD_PARAM if tdHandle is invalid
 130:main.c        ****      */
 131:main.c        ****     CyDmaTdSetAddress(
 132:main.c        ****         DMA_TD[0],                              //TD channel used
 133:main.c        ****         LO16((uint32)ADC_DelSig_DEC_SAMP_PTR),  //Source buffer
 134:main.c        ****         LO16((uint32)ADC_DMA_Buf)               //Destination buffer
 135:main.c        ****     );
 136:main.c        ****     
 137:main.c        ****     /*Sets the initial TD to be executed for the channel when the CyDmaChEnable() function is calle
 138:main.c        ****      *Return value: CYRET_SUCCESS if successful, CYRET_BAD_PARAM if chHandle is invalid*/
 139:main.c        ****     CyDmaChSetInitialTd(
 140:main.c        ****         DMA_Chan,       //A handle previously returned by CyDmaChAlloc() or DMA_DmaInitialize()
 141:main.c        ****         DMA_TD[0]       /*The index of TD to set as the first TD associated with the channel. 
 142:main.c        ****                         Zero is a valid TD index*/
 143:main.c        ****     );
 144:main.c        ****     
 145:main.c        ****     /*Enables the DMA channel
 146:main.c        ****     Return value: CYRET_SUCCESS if successful, CYRET_BAD_PARAM if chHandle is invalid*/
 147:main.c        ****     CyDmaChEnable(
 148:main.c        ****         DMA_Chan,       //Channel handle
 149:main.c        ****         1               //When a TD is completed, the DMAC restores the original configuration valu
 150:main.c        ****     );     
 151:main.c        **** 
 152:main.c        ****     for(;;)
 153:main.c        ****     {
ARM GAS  C:\Users\user\AppData\Local\Temp\ccBgXyQe.s 			page 6


 154:main.c        ****         /* Place your application code here. */  
 155:main.c        ****     
 156:main.c        ****         stateHandler();
 157:main.c        ****         asm("nop");
 158:main.c        ****     }
 159:main.c        **** }
 160:main.c        **** 
 161:main.c        **** void stateHandler()
 162:main.c        **** {
 163:main.c        ****     switch(Appstate)
 164:main.c        ****     {
 165:main.c        **** 	case IS_IDLE:       WaveDAC8_Start();       //start DAC
 166:main.c        **** 				        ADC_DelSig_Start();     //start ADC
 167:main.c        **** 				        UART_Start();           //start UART
 168:main.c        **** 				        if(Pin_RedLED_Read()==1)
 169:main.c        ****                         {
 170:main.c        ****                             //if status of led is high then go to next state
 171:main.c        **** 				            Appstate = IS_Sampling;     //state changes to sampling
 172:main.c        ****                         }
 173:main.c        **** 				        break;
 174:main.c        **** 	
 175:main.c        **** 	case IS_Sampling:  	if(Pin_YellowLED_Read()==1)
 176:main.c        ****                         {
 177:main.c        ****                             //if status of led is high then go to next state
 178:main.c        **** 				            Appstate = IS_UARTTransfer; //state changes to UART Transfer
 179:main.c        ****                         }
 180:main.c        **** 						break;
 181:main.c        ****                         
 182:main.c        **** 	case IS_UARTTransfer:   UARTtoMatlab_Transfer();    //function to communicate with Matlab
 183:main.c        ****                             if(Pin_GreenLED_Read()==1)
 184:main.c        ****                             {
 185:main.c        ****                                 //if status of led is high then go to next state
 186:main.c        ****                                 Pin_RedLED_Write(1);    //indicating state change to Idle state
 187:main.c        ****                                 Pin_GreenLED_Write(0);  //turn off other LEDs
 188:main.c        ****                                 Pin_YellowLED_Write(0); //turn off other LEDs
 189:main.c        ****                                 Appstate = IS_Sampling; //state changes to sampling                
 190:main.c        ****                             }
 191:main.c        ****                             break;
 192:main.c        ****     }
 193:main.c        **** }
 194:main.c        **** 
 195:main.c        **** /*Function to communicate with Matlab
 196:main.c        ****  *when Matlab sends 's' e startsending data and Matlab notifies with 'o' for succesful reception*/
 197:main.c        **** void UARTtoMatlab_Transfer()
 198:main.c        **** {
 133              		.loc 1 198 0
 134              		.cfi_startproc
 135              		@ args = 0, pretend = 0, frame = 0
 136              		@ frame_needed = 0, uses_anonymous_args = 0
 137 0000 08B5     		push	{r3, lr}
 138              		.cfi_def_cfa_offset 8
 139              		.cfi_offset 3, -8
 140              		.cfi_offset 14, -4
 199:main.c        ****     if(UART_GetChar()=='s')
 141              		.loc 1 199 0
 142 0002 FFF7FEFF 		bl	UART_GetChar
 143              	.LVL10:
ARM GAS  C:\Users\user\AppData\Local\Temp\ccBgXyQe.s 			page 7


 144 0006 7328     		cmp	r0, #115
 145 0008 04D1     		bne	.L11
 200:main.c        ****     {
 201:main.c        ****         UART_PutArray(
 146              		.loc 1 201 0
 147 000a 4FF40061 		mov	r1, #2048
 148 000e 0648     		ldr	r0, .L13
 149 0010 FFF7FEFF 		bl	UART_PutArray
 150              	.LVL11:
 151              	.L11:
 202:main.c        ****             ADC_DMA_Buf,        //Data buffer
 203:main.c        ****             ADC_DMA_Bufsize     //Buffer size
 204:main.c        ****         );                        
 205:main.c        ****     }
 206:main.c        ****         Pin_GreenLED_Write(1);      //Turn on green LED to indicate sussesful data transmission
 152              		.loc 1 206 0
 153 0014 0120     		movs	r0, #1
 154 0016 FFF7FEFF 		bl	Pin_GreenLED_Write
 155              	.LVL12:
 207:main.c        ****         Pin_RedLED_Write(0);        //keep other LEDs off
 156              		.loc 1 207 0
 157 001a 0020     		movs	r0, #0
 158 001c FFF7FEFF 		bl	Pin_RedLED_Write
 159              	.LVL13:
 208:main.c        ****         Pin_YellowLED_Write(0);     //keep other LEDs off
 160              		.loc 1 208 0
 161 0020 0020     		movs	r0, #0
 162 0022 FFF7FEFF 		bl	Pin_YellowLED_Write
 163              	.LVL14:
 164 0026 08BD     		pop	{r3, pc}
 165              	.L14:
 166              		.align	2
 167              	.L13:
 168 0028 00000000 		.word	ADC_DMA_Buf
 169              		.cfi_endproc
 170              	.LFE68:
 171              		.size	UARTtoMatlab_Transfer, .-UARTtoMatlab_Transfer
 172              		.section	.text.stateHandler,"ax",%progbits
 173              		.align	2
 174              		.global	stateHandler
 175              		.thumb
 176              		.thumb_func
 177              		.type	stateHandler, %function
 178              	stateHandler:
 179              	.LFB67:
 162:main.c        ****     switch(Appstate)
 180              		.loc 1 162 0
 181              		.cfi_startproc
 182              		@ args = 0, pretend = 0, frame = 0
 183              		@ frame_needed = 0, uses_anonymous_args = 0
 184 0000 08B5     		push	{r3, lr}
 185              		.cfi_def_cfa_offset 8
 186              		.cfi_offset 3, -8
 187              		.cfi_offset 14, -4
 163:main.c        ****     {
 188              		.loc 1 163 0
 189 0002 184B     		ldr	r3, .L21
ARM GAS  C:\Users\user\AppData\Local\Temp\ccBgXyQe.s 			page 8


 190 0004 1B78     		ldrb	r3, [r3]	@ zero_extendqisi2
 191 0006 012B     		cmp	r3, #1
 192 0008 11D0     		beq	.L17
 193 000a 13B1     		cbz	r3, .L18
 194 000c 022B     		cmp	r3, #2
 195 000e 16D0     		beq	.L19
 196 0010 08BD     		pop	{r3, pc}
 197              	.L18:
 165:main.c        **** 				        ADC_DelSig_Start();     //start ADC
 198              		.loc 1 165 0
 199 0012 FFF7FEFF 		bl	WaveDAC8_Start
 200              	.LVL15:
 166:main.c        **** 				        UART_Start();           //start UART
 201              		.loc 1 166 0
 202 0016 FFF7FEFF 		bl	ADC_DelSig_Start
 203              	.LVL16:
 167:main.c        **** 				        if(Pin_RedLED_Read()==1)
 204              		.loc 1 167 0
 205 001a FFF7FEFF 		bl	UART_Start
 206              	.LVL17:
 168:main.c        ****                         {
 207              		.loc 1 168 0
 208 001e FFF7FEFF 		bl	Pin_RedLED_Read
 209              	.LVL18:
 210 0022 0128     		cmp	r0, #1
 211 0024 1CD1     		bne	.L15
 171:main.c        ****                         }
 212              		.loc 1 171 0
 213 0026 0122     		movs	r2, #1
 214 0028 0E4B     		ldr	r3, .L21
 215 002a 1A70     		strb	r2, [r3]
 216 002c 08BD     		pop	{r3, pc}
 217              	.L17:
 175:main.c        ****                         {
 218              		.loc 1 175 0
 219 002e FFF7FEFF 		bl	Pin_YellowLED_Read
 220              	.LVL19:
 221 0032 0128     		cmp	r0, #1
 222 0034 14D1     		bne	.L15
 178:main.c        ****                         }
 223              		.loc 1 178 0
 224 0036 0222     		movs	r2, #2
 225 0038 0A4B     		ldr	r3, .L21
 226 003a 1A70     		strb	r2, [r3]
 227 003c 08BD     		pop	{r3, pc}
 228              	.L19:
 182:main.c        ****                             if(Pin_GreenLED_Read()==1)
 229              		.loc 1 182 0
 230 003e FFF7FEFF 		bl	UARTtoMatlab_Transfer
 231              	.LVL20:
 183:main.c        ****                             {
 232              		.loc 1 183 0
 233 0042 FFF7FEFF 		bl	Pin_GreenLED_Read
 234              	.LVL21:
 235 0046 0128     		cmp	r0, #1
 236 0048 0AD1     		bne	.L15
 186:main.c        ****                                 Pin_GreenLED_Write(0);  //turn off other LEDs
ARM GAS  C:\Users\user\AppData\Local\Temp\ccBgXyQe.s 			page 9


 237              		.loc 1 186 0
 238 004a FFF7FEFF 		bl	Pin_RedLED_Write
 239              	.LVL22:
 187:main.c        ****                                 Pin_YellowLED_Write(0); //turn off other LEDs
 240              		.loc 1 187 0
 241 004e 0020     		movs	r0, #0
 242 0050 FFF7FEFF 		bl	Pin_GreenLED_Write
 243              	.LVL23:
 188:main.c        ****                                 Appstate = IS_Sampling; //state changes to sampling                
 244              		.loc 1 188 0
 245 0054 0020     		movs	r0, #0
 246 0056 FFF7FEFF 		bl	Pin_YellowLED_Write
 247              	.LVL24:
 189:main.c        ****                             }
 248              		.loc 1 189 0
 249 005a 0122     		movs	r2, #1
 250 005c 014B     		ldr	r3, .L21
 251 005e 1A70     		strb	r2, [r3]
 252              	.L15:
 253 0060 08BD     		pop	{r3, pc}
 254              	.L22:
 255 0062 00BF     		.align	2
 256              	.L21:
 257 0064 00000000 		.word	Appstate
 258              		.cfi_endproc
 259              	.LFE67:
 260              		.size	stateHandler, .-stateHandler
 261              		.section	.text.main,"ax",%progbits
 262              		.align	2
 263              		.global	main
 264              		.thumb
 265              		.thumb_func
 266              		.type	main, %function
 267              	main:
 268              	.LFB66:
  87:main.c        ****     CyGlobalIntEnable;      /* Enable global interrupts. */
 269              		.loc 1 87 0
 270              		.cfi_startproc
 271              		@ Volatile: function does not return.
 272              		@ args = 0, pretend = 0, frame = 0
 273              		@ frame_needed = 0, uses_anonymous_args = 0
 274 0000 08B5     		push	{r3, lr}
 275              		.cfi_def_cfa_offset 8
 276              		.cfi_offset 3, -8
 277              		.cfi_offset 14, -4
  88:main.c        **** 
 278              		.loc 1 88 0
 279              		.syntax unified
 280              	@ 88 "main.c" 1
 281 0002 62B6     		CPSIE   i
 282              	@ 0 "" 2
  91:main.c        ****     ADC_DelSig_Start();     //start ADC
 283              		.loc 1 91 0
 284              		.thumb
 285              		.syntax unified
 286 0004 FFF7FEFF 		bl	WaveDAC8_Start
 287              	.LVL25:
ARM GAS  C:\Users\user\AppData\Local\Temp\ccBgXyQe.s 			page 10


  92:main.c        ****     
 288              		.loc 1 92 0
 289 0008 FFF7FEFF 		bl	ADC_DelSig_Start
 290              	.LVL26:
  95:main.c        ****     
 291              		.loc 1 95 0
 292 000c 1748     		ldr	r0, .L26
 293 000e FFF7FEFF 		bl	ISR_PB_StartEx
 294              	.LVL27:
  97:main.c        ****     
 295              		.loc 1 97 0
 296 0012 1748     		ldr	r0, .L26+4
 297 0014 FFF7FEFF 		bl	ISR_UART_StartEx
 298              	.LVL28:
  99:main.c        ****     
 299              		.loc 1 99 0
 300 0018 1648     		ldr	r0, .L26+8
 301 001a FFF7FEFF 		bl	ISR_DMA_StartEx
 302              	.LVL29:
 110:main.c        ****     );
 303              		.loc 1 110 0
 304 001e 164E     		ldr	r6, .L26+12
 106:main.c        ****         DMA_BYTES_PER_BURST,            //Number of bytes for each sample
 305              		.loc 1 106 0
 306 0020 330C     		lsrs	r3, r6, #16
 307 0022 4FF48042 		mov	r2, #16384
 308 0026 0121     		movs	r1, #1
 309 0028 0220     		movs	r0, #2
 310 002a FFF7FEFF 		bl	DMA_DmaInitialize
 311              	.LVL30:
 312 002e 134C     		ldr	r4, .L26+16
 313 0030 2070     		strb	r0, [r4]
 116:main.c        ****     
 314              		.loc 1 116 0
 315 0032 FFF7FEFF 		bl	CyDmaTdAllocate
 316              	.LVL31:
 317 0036 124D     		ldr	r5, .L26+20
 318 0038 2870     		strb	r0, [r5]
 121:main.c        ****         DMA_TD[0],          //transport descriptor handle
 319              		.loc 1 121 0
 320 003a 0623     		movs	r3, #6
 321 003c FE22     		movs	r2, #254
 322 003e 4FF40061 		mov	r1, #2048
 323 0042 FFF7FEFF 		bl	CyDmaTdSetConfiguration
 324              	.LVL32:
 131:main.c        ****         DMA_TD[0],                              //TD channel used
 325              		.loc 1 131 0
 326 0046 B2B2     		uxth	r2, r6
 327 0048 44F61061 		movw	r1, #19984
 328 004c 2878     		ldrb	r0, [r5]	@ zero_extendqisi2
 329 004e FFF7FEFF 		bl	CyDmaTdSetAddress
 330              	.LVL33:
 139:main.c        ****         DMA_Chan,       //A handle previously returned by CyDmaChAlloc() or DMA_DmaInitialize()
 331              		.loc 1 139 0
 332 0052 2978     		ldrb	r1, [r5]	@ zero_extendqisi2
 333 0054 2078     		ldrb	r0, [r4]	@ zero_extendqisi2
 334 0056 FFF7FEFF 		bl	CyDmaChSetInitialTd
ARM GAS  C:\Users\user\AppData\Local\Temp\ccBgXyQe.s 			page 11


 335              	.LVL34:
 147:main.c        ****         DMA_Chan,       //Channel handle
 336              		.loc 1 147 0
 337 005a 0121     		movs	r1, #1
 338 005c 2078     		ldrb	r0, [r4]	@ zero_extendqisi2
 339 005e FFF7FEFF 		bl	CyDmaChEnable
 340              	.LVL35:
 341              	.L24:
 156:main.c        ****         asm("nop");
 342              		.loc 1 156 0 discriminator 1
 343 0062 FFF7FEFF 		bl	stateHandler
 344              	.LVL36:
 157:main.c        ****     }
 345              		.loc 1 157 0 discriminator 1
 346              		.syntax unified
 347              	@ 157 "main.c" 1
 348 0066 00BF     		nop
 349              	@ 0 "" 2
 350              		.thumb
 351              		.syntax unified
 352 0068 FBE7     		b	.L24
 353              	.L27:
 354 006a 00BF     		.align	2
 355              	.L26:
 356 006c 00000000 		.word	isr_pb
 357 0070 00000000 		.word	isr_uart
 358 0074 00000000 		.word	isr_dma
 359 0078 00000000 		.word	ADC_DMA_Buf
 360 007c 00000000 		.word	DMA_Chan
 361 0080 00000000 		.word	DMA_TD
 362              		.cfi_endproc
 363              	.LFE66:
 364              		.size	main, .-main
 365              		.comm	Appstate,1,1
 366              		.comm	DMA_TD,1,4
 367              		.comm	DMA_Chan,1,1
 368              		.comm	ADC_DMA_Buf,4096,4
 369              		.text
 370              	.Letext0:
 371              		.file 2 "c:\\program files (x86)\\cypress\\psoc creator\\4.2\\psoc creator\\import\\gnu\\arm\\5.4.
 372              		.file 3 "c:\\program files (x86)\\cypress\\psoc creator\\4.2\\psoc creator\\import\\gnu\\arm\\5.4.
 373              		.file 4 "Generated_Source\\PSoC5/cytypes.h"
 374              		.file 5 "Generated_Source\\PSoC5/core_cm3.h"
 375              		.file 6 "Generated_Source\\PSoC5/ADC_DelSig.h"
 376              		.file 7 "Generated_Source\\PSoC5/Pin_RedLED.h"
 377              		.file 8 "Generated_Source\\PSoC5/Pin_GreenLED.h"
 378              		.file 9 "Generated_Source\\PSoC5/Pin_YellowLED.h"
 379              		.file 10 "Generated_Source\\PSoC5/Pin_PB.h"
 380              		.file 11 "Generated_Source\\PSoC5/ISR_DMA.h"
 381              		.file 12 "Generated_Source\\PSoC5/CYDMAC.H"
 382              		.file 13 "Generated_Source\\PSoC5/UART.h"
 383              		.file 14 "Generated_Source\\PSoC5/WaveDAC8.h"
 384              		.file 15 "Generated_Source\\PSoC5/ISR_PB.h"
 385              		.file 16 "Generated_Source\\PSoC5/ISR_UART.h"
 386              		.file 17 "Generated_Source\\PSoC5/DMA_dma.h"